target datalayout = "e-m:e-p270:32:32-p271:32:32-p272:64:64-i64:64-i128:128-f80:128-n8:16:32:64-S128"
target triple = "x86_64-pc-linux-gnu"

%struct._zval_struct = type { %union._zend_value, %union.anon.0, %union.anon.3 }
%union._zend_value = type { i64 }
%union.anon.0 = type { i32 }
%union.anon.3 = type { i32 }
%struct._zend_array = type { %struct._zend_refcounted_h, %union.anon.4, i32, %union.anon.6, i32, i32, i32, i32, i64, ptr }
%struct._zend_refcounted_h = type { i32, %union.anon }
%union.anon = type { i32 }
%union.anon.4 = type { i32 }
%union.anon.6 = type { ptr }
%struct._zend_object = type { %struct._zend_refcounted_h, i32, ptr, ptr, ptr, [1 x %struct._zval_struct] }
%struct._zend_class_entry = type { i8, ptr, %union.anon.7, i32, i32, i32, i32, ptr, ptr, ptr, %struct._zend_array, %struct._zend_array, %struct._zend_array, ptr, ptr, ptr, ptr, ptr, ptr, ptr, ptr, ptr, ptr, ptr, ptr, ptr, ptr, ptr, ptr, ptr, ptr, ptr, %union.anon.8, ptr, ptr, ptr, ptr, i32, i32, %union.anon.9, ptr, ptr, ptr, ptr, i32, ptr, ptr, %union.anon.10 }
%union.anon.7 = type { ptr }
%union.anon.8 = type { ptr }
%union.anon.9 = type { ptr }
%union.anon.10 = type { %struct.anon.11 }
%struct.anon.11 = type { ptr, i32, i32 }
%struct.anon.1 = type { i8, i8, %union.anon.2 }
%union.anon.2 = type { i16 }
%struct._zend_reference = type { %struct._zend_refcounted_h, %struct._zval_struct, %union.zend_property_info_source_list }
%union.zend_property_info_source_list = type { ptr }
%struct._zend_property_info = type { i32, i32, ptr, ptr, ptr, ptr, %struct.zend_type }
%struct.zend_type = type { ptr, i32 }

; Function Attrs: nounwind uwtable
define internal ptr @zend_get_property_info_for_slot(ptr noundef %0, ptr noundef %1) #0 {
  %3 = alloca ptr, align 8
  %4 = alloca ptr, align 8
  %5 = alloca ptr, align 8
  %6 = alloca i64, align 8
  store ptr %0, ptr %3, align 8
  store ptr %1, ptr %4, align 8
  %7 = load ptr, ptr %3, align 8
  %8 = getelementptr inbounds %struct._zend_object, ptr %7, i32 0, i32 2
  %9 = load ptr, ptr %8, align 8
  %10 = getelementptr inbounds %struct._zend_class_entry, ptr %9, i32 0, i32 15
  %11 = load ptr, ptr %10, align 8
  store ptr %11, ptr %5, align 8
  %12 = load ptr, ptr %4, align 8
  %13 = load ptr, ptr %3, align 8
  %14 = getelementptr inbounds %struct._zend_object, ptr %13, i32 0, i32 5
  %15 = getelementptr inbounds [1 x %struct._zval_struct], ptr %14, i64 0, i64 0
  %16 = ptrtoint ptr %12 to i64
  %17 = ptrtoint ptr %15 to i64
  %18 = sub i64 %16, %17
  %19 = sdiv exact i64 %18, 16
  store i64 %19, ptr %6, align 8
  %20 = load i64, ptr %6, align 8
  %21 = icmp sge i64 %20, 0
  br i1 %21, label %22, label %31

22:                                               ; preds = %2
  %23 = load i64, ptr %6, align 8
  %24 = load ptr, ptr %3, align 8
  %25 = getelementptr inbounds %struct._zend_object, ptr %24, i32 0, i32 2
  %26 = load ptr, ptr %25, align 8
  %27 = getelementptr inbounds %struct._zend_class_entry, ptr %26, i32 0, i32 5
  %28 = load i32, ptr %27, align 8
  %29 = sext i32 %28 to i64
  %30 = icmp slt i64 %23, %29
  br label %31

31:                                               ; preds = %22, %2
  %32 = phi i1 [ false, %2 ], [ %30, %22 ]
  call void @llvm.assume(i1 %32)
  %33 = load ptr, ptr %5, align 8
  %34 = load i64, ptr %6, align 8
  %35 = getelementptr inbounds ptr, ptr %33, i64 %34
  %36 = load ptr, ptr %35, align 8
  ret ptr %36
}

; Function Attrs: nounwind uwtable
define void @zend_object_std_dtor(ptr noundef %0) #0 {
  %2 = alloca ptr, align 8
  %3 = alloca ptr, align 8
  %4 = alloca ptr, align 8
  %5 = alloca ptr, align 8
  %6 = alloca ptr, align 8
  %7 = alloca ptr, align 8
  %8 = alloca ptr, align 8
  %9 = alloca ptr, align 8
  %10 = alloca ptr, align 8
  %11 = alloca ptr, align 8
  %12 = alloca ptr, align 8
  %13 = alloca i32, align 4
  %14 = alloca ptr, align 8
  %15 = alloca i32, align 4
  %16 = alloca i32, align 4
  %17 = alloca ptr, align 8
  %18 = alloca ptr, align 8
  %19 = alloca ptr, align 8
  %20 = alloca ptr, align 8
  %21 = alloca ptr, align 8
  store ptr %0, ptr %17, align 8
  %22 = load ptr, ptr %17, align 8
  %23 = getelementptr inbounds %struct._zend_object, ptr %22, i32 0, i32 4
  %24 = load ptr, ptr %23, align 8
  %25 = icmp ne ptr %24, null
  br i1 %25, label %26, label %83

26:                                               ; preds = %1
  %27 = load ptr, ptr %17, align 8
  %28 = getelementptr inbounds %struct._zend_object, ptr %27, i32 0, i32 4
  %29 = load ptr, ptr %28, align 8
  %30 = getelementptr inbounds %struct._zend_array, ptr %29, i32 0, i32 0
  %31 = getelementptr inbounds %struct._zend_refcounted_h, ptr %30, i32 0, i32 1
  %32 = load i32, ptr %31, align 4
  store i32 %32, ptr %15, align 4
  %33 = load i32, ptr %15, align 4
  %34 = and i32 %33, 1008
  %35 = and i32 %34, 64
  %36 = icmp ne i32 %35, 0
  %37 = xor i1 %36, true
  %38 = xor i1 %37, true
  %39 = xor i1 %38, true
  %40 = zext i1 %39 to i32
  %41 = sext i32 %40 to i64
  %42 = icmp ne i64 %41, 0
  br i1 %42, label %43, label %82

43:                                               ; preds = %26
  %44 = load ptr, ptr %17, align 8
  %45 = getelementptr inbounds %struct._zend_object, ptr %44, i32 0, i32 4
  %46 = load ptr, ptr %45, align 8
  %47 = getelementptr inbounds %struct._zend_array, ptr %46, i32 0, i32 0
  store ptr %47, ptr %14, align 8
  %48 = load ptr, ptr %14, align 8
  %49 = load i32, ptr %48, align 4
  %50 = icmp ugt i32 %49, 0
  call void @llvm.assume(i1 %50)
  %51 = load ptr, ptr %14, align 8
  %52 = load i32, ptr %51, align 4
  %53 = add i32 %52, -1
  store i32 %53, ptr %51, align 4
  %54 = icmp eq i32 %53, 0
  %55 = xor i1 %54, true
  %56 = xor i1 %55, true
  %57 = zext i1 %56 to i32
  %58 = sext i32 %57 to i64
  %59 = icmp ne i64 %58, 0
  br i1 %59, label %60, label %81

60:                                               ; preds = %43
  %61 = load ptr, ptr %17, align 8
  %62 = getelementptr inbounds %struct._zend_object, ptr %61, i32 0, i32 4
  %63 = load ptr, ptr %62, align 8
  %64 = getelementptr inbounds %struct._zend_array, ptr %63, i32 0, i32 0
  %65 = getelementptr inbounds %struct._zend_refcounted_h, ptr %64, i32 0, i32 1
  %66 = load i32, ptr %65, align 4
  store i32 %66, ptr %13, align 4
  %67 = load i32, ptr %13, align 4
  %68 = and i32 %67, 15
  %69 = trunc i32 %68 to i8
  %70 = zext i8 %69 to i32
  %71 = icmp ne i32 %70, 1
  %72 = xor i1 %71, true
  %73 = xor i1 %72, true
  %74 = zext i1 %73 to i32
  %75 = sext i32 %74 to i64
  %76 = icmp ne i64 %75, 0
  br i1 %76, label %77, label %81

77:                                               ; preds = %60
  %78 = load ptr, ptr %17, align 8
  %79 = getelementptr inbounds %struct._zend_object, ptr %78, i32 0, i32 4
  %80 = load ptr, ptr %79, align 8
  call void @zend_array_destroy(ptr noundef %80)
  br label %81

81:                                               ; preds = %77, %60, %43
  br label %82

82:                                               ; preds = %81, %26
  br label %83

83:                                               ; preds = %82, %1
  %84 = load ptr, ptr %17, align 8
  %85 = getelementptr inbounds %struct._zend_object, ptr %84, i32 0, i32 5
  %86 = getelementptr inbounds [1 x %struct._zval_struct], ptr %85, i64 0, i64 0
  store ptr %86, ptr %18, align 8
  %87 = load ptr, ptr %17, align 8
  %88 = getelementptr inbounds %struct._zend_object, ptr %87, i32 0, i32 2
  %89 = load ptr, ptr %88, align 8
  %90 = getelementptr inbounds %struct._zend_class_entry, ptr %89, i32 0, i32 5
  %91 = load i32, ptr %90, align 8
  %92 = icmp ne i32 %91, 0
  %93 = xor i1 %92, true
  %94 = xor i1 %93, true
  %95 = zext i1 %94 to i32
  %96 = sext i32 %95 to i64
  %97 = icmp ne i64 %96, 0
  br i1 %97, label %98, label %210

98:                                               ; preds = %83
  %99 = load ptr, ptr %18, align 8
  %100 = load ptr, ptr %17, align 8
  %101 = getelementptr inbounds %struct._zend_object, ptr %100, i32 0, i32 2
  %102 = load ptr, ptr %101, align 8
  %103 = getelementptr inbounds %struct._zend_class_entry, ptr %102, i32 0, i32 5
  %104 = load i32, ptr %103, align 8
  %105 = sext i32 %104 to i64
  %106 = getelementptr inbounds %struct._zval_struct, ptr %99, i64 %105
  store ptr %106, ptr %19, align 8
  br label %107

107:                                              ; preds = %205, %98
  %108 = load ptr, ptr %18, align 8
  %109 = getelementptr inbounds %struct._zval_struct, ptr %108, i32 0, i32 1
  %110 = getelementptr inbounds %struct.anon.1, ptr %109, i32 0, i32 1
  %111 = load i8, ptr %110, align 1
  %112 = zext i8 %111 to i32
  %113 = icmp ne i32 %112, 0
  br i1 %113, label %114, label %202

114:                                              ; preds = %107
  %115 = load ptr, ptr %18, align 8
  store ptr %115, ptr %10, align 8
  %116 = load ptr, ptr %10, align 8
  %117 = getelementptr inbounds %struct._zval_struct, ptr %116, i32 0, i32 1
  %118 = load i8, ptr %117, align 8
  %119 = zext i8 %118 to i32
  %120 = icmp eq i32 %119, 10
  %121 = xor i1 %120, true
  %122 = xor i1 %121, true
  %123 = zext i1 %122 to i32
  %124 = sext i32 %123 to i64
  %125 = icmp ne i64 %124, 0
  br i1 %125, label %126, label %150

126:                                              ; preds = %114
  %127 = load ptr, ptr %18, align 8
  %128 = getelementptr inbounds %struct._zval_struct, ptr %127, i32 0, i32 0
  %129 = load ptr, ptr %128, align 8
  %130 = getelementptr inbounds %struct._zend_reference, ptr %129, i32 0, i32 2
  %131 = load ptr, ptr %130, align 8
  %132 = icmp ne ptr %131, null
  br i1 %132, label %133, label %150

133:                                              ; preds = %126
  %134 = load ptr, ptr %17, align 8
  %135 = load ptr, ptr %18, align 8
  %136 = call ptr @zend_get_property_info_for_slot(ptr noundef %134, ptr noundef %135)
  store ptr %136, ptr %20, align 8
  %137 = load ptr, ptr %20, align 8
  %138 = getelementptr inbounds %struct._zend_property_info, ptr %137, i32 0, i32 6
  %139 = getelementptr inbounds %struct.zend_type, ptr %138, i32 0, i32 1
  %140 = load i32, ptr %139, align 8
  %141 = and i32 %140, 33554431
  %142 = icmp ne i32 %141, 0
  br i1 %142, label %143, label %149

143:                                              ; preds = %133
  %144 = load ptr, ptr %18, align 8
  %145 = getelementptr inbounds %struct._zval_struct, ptr %144, i32 0, i32 0
  %146 = load ptr, ptr %145, align 8
  %147 = getelementptr inbounds %struct._zend_reference, ptr %146, i32 0, i32 2
  %148 = load ptr, ptr %20, align 8
  call void @zend_ref_del_type_source(ptr noundef %147, ptr noundef %148)
  br label %149

149:                                              ; preds = %143, %133
  br label %150

150:                                              ; preds = %149, %126, %114
  %151 = load ptr, ptr %18, align 8
  store ptr %151, ptr %8, align 8
  %152 = load ptr, ptr %8, align 8
  %153 = getelementptr inbounds %struct._zval_struct, ptr %152, i32 0, i32 1
  %154 = getelementptr inbounds %struct.anon.1, ptr %153, i32 0, i32 1
  %155 = load i8, ptr %154, align 1
  %156 = zext i8 %155 to i32
  %157 = icmp ne i32 %156, 0
  br i1 %157, label %158, label %201

158:                                              ; preds = %150
  %159 = load ptr, ptr %8, align 8
  %160 = load ptr, ptr %159, align 8
  store ptr %160, ptr %9, align 8
  %161 = load ptr, ptr %9, align 8
  store ptr %161, ptr %7, align 8
  %162 = load ptr, ptr %7, align 8
  %163 = load i32, ptr %162, align 4
  %164 = icmp ugt i32 %163, 0
  call void @llvm.assume(i1 %164)
  %165 = load ptr, ptr %7, align 8
  %166 = load i32, ptr %165, align 4
  %167 = add i32 %166, -1
  store i32 %167, ptr %165, align 4
  %168 = icmp ne i32 %167, 0
  br i1 %168, label %171, label %169

169:                                              ; preds = %158
  %170 = load ptr, ptr %9, align 8
  call void @rc_dtor_func(ptr noundef %170) #6
  br label %200

171:                                              ; preds = %158
  %172 = load ptr, ptr %9, align 8
  store ptr %172, ptr %4, align 8
  %173 = load ptr, ptr %4, align 8
  %174 = getelementptr inbounds %struct._zend_refcounted_h, ptr %173, i32 0, i32 1
  %175 = load i32, ptr %174, align 4
  %176 = icmp eq i32 %175, 26
  br i1 %176, label %177, label %191

177:                                              ; preds = %171
  %178 = load ptr, ptr %4, align 8
  %179 = getelementptr inbounds %struct._zend_reference, ptr %178, i32 0, i32 1
  store ptr %179, ptr %5, align 8
  %180 = load ptr, ptr %5, align 8
  %181 = getelementptr inbounds %struct._zval_struct, ptr %180, i32 0, i32 1
  %182 = getelementptr inbounds %struct.anon.1, ptr %181, i32 0, i32 1
  %183 = load i8, ptr %182, align 1
  %184 = zext i8 %183 to i32
  %185 = and i32 %184, 2
  %186 = icmp ne i32 %185, 0
  br i1 %186, label %188, label %187

187:                                              ; preds = %177
  br label %199

188:                                              ; preds = %177
  %189 = load ptr, ptr %5, align 8
  %190 = load ptr, ptr %189, align 8
  store ptr %190, ptr %4, align 8
  br label %191

191:                                              ; preds = %188, %171
  %192 = load ptr, ptr %4, align 8
  %193 = getelementptr inbounds %struct._zend_refcounted_h, ptr %192, i32 0, i32 1
  %194 = load i32, ptr %193, align 4
  %195 = and i32 %194, -1008
  %196 = icmp eq i32 %195, 0
  br i1 %196, label %197, label %199

197:                                              ; preds = %191
  %198 = load ptr, ptr %4, align 8
  call void @gc_possible_root(ptr noundef %198) #6
  br label %199

199:                                              ; preds = %197, %191, %187
  br label %200

200:                                              ; preds = %199, %169
  br label %201

201:                                              ; preds = %200, %150
  br label %202

202:                                              ; preds = %201, %107
  %203 = load ptr, ptr %18, align 8
  %204 = getelementptr inbounds %struct._zval_struct, ptr %203, i32 1
  store ptr %204, ptr %18, align 8
  br label %205

205:                                              ; preds = %202
  %206 = load ptr, ptr %18, align 8
  %207 = load ptr, ptr %19, align 8
  %208 = icmp ne ptr %206, %207
  br i1 %208, label %107, label %209

209:                                              ; preds = %205
  br label %210

210:                                              ; preds = %209, %83
  %211 = load ptr, ptr %17, align 8
  %212 = getelementptr inbounds %struct._zend_object, ptr %211, i32 0, i32 2
  %213 = load ptr, ptr %212, align 8
  %214 = getelementptr inbounds %struct._zend_class_entry, ptr %213, i32 0, i32 4
  %215 = load i32, ptr %214, align 4
  %216 = and i32 %215, 2048
  %217 = icmp ne i32 %216, 0
  %218 = xor i1 %217, true
  %219 = xor i1 %218, true
  %220 = zext i1 %219 to i32
  %221 = sext i32 %220 to i64
  %222 = icmp ne i64 %221, 0
  br i1 %222, label %223, label %283

223:                                              ; preds = %210
  %224 = load ptr, ptr %18, align 8
  store ptr %224, ptr %11, align 8
  %225 = load ptr, ptr %11, align 8
  %226 = getelementptr inbounds %struct._zval_struct, ptr %225, i32 0, i32 1
  %227 = load i8, ptr %226, align 8
  %228 = zext i8 %227 to i32
  %229 = icmp eq i32 %228, 6
  %230 = xor i1 %229, true
  %231 = xor i1 %230, true
  %232 = zext i1 %231 to i32
  %233 = sext i32 %232 to i64
  %234 = icmp ne i64 %233, 0
  br i1 %234, label %235, label %264

235:                                              ; preds = %223
  %236 = load ptr, ptr %18, align 8
  store ptr %236, ptr %6, align 8
  %237 = load ptr, ptr %6, align 8
  %238 = getelementptr inbounds %struct._zval_struct, ptr %237, i32 0, i32 1
  %239 = getelementptr inbounds %struct.anon.1, ptr %238, i32 0, i32 1
  %240 = load i8, ptr %239, align 1
  %241 = zext i8 %240 to i32
  %242 = icmp ne i32 %241, 0
  br i1 %242, label %243, label %263

243:                                              ; preds = %235
  %244 = load ptr, ptr %6, align 8
  store ptr %244, ptr %3, align 8
  %245 = load ptr, ptr %3, align 8
  %246 = getelementptr inbounds %struct._zval_struct, ptr %245, i32 0, i32 1
  %247 = getelementptr inbounds %struct.anon.1, ptr %246, i32 0, i32 1
  %248 = load i8, ptr %247, align 1
  %249 = zext i8 %248 to i32
  %250 = icmp ne i32 %249, 0
  call void @llvm.assume(i1 %250)
  %251 = load ptr, ptr %3, align 8
  %252 = load ptr, ptr %251, align 8
  store ptr %252, ptr %2, align 8
  %253 = load ptr, ptr %2, align 8
  %254 = load i32, ptr %253, align 4
  %255 = icmp ugt i32 %254, 0
  call void @llvm.assume(i1 %255)
  %256 = load ptr, ptr %2, align 8
  %257 = load i32, ptr %256, align 4
  %258 = add i32 %257, -1
  store i32 %258, ptr %256, align 4
  %259 = icmp ne i32 %258, 0
  br i1 %259, label %263, label %260

260:                                              ; preds = %243
  %261 = load ptr, ptr %6, align 8
  %262 = load ptr, ptr %261, align 8
  call void @_efree(ptr noundef %262) #6
  br label %263

263:                                              ; preds = %260, %243, %235
  br label %282

264:                                              ; preds = %223
  %265 = load ptr, ptr %18, align 8
  store ptr %265, ptr %12, align 8
  %266 = load ptr, ptr %12, align 8
  %267 = getelementptr inbounds %struct._zval_struct, ptr %266, i32 0, i32 1
  %268 = load i8, ptr %267, align 8
  %269 = zext i8 %268 to i32
  %270 = icmp eq i32 %269, 7
  br i1 %270, label %271, label %281

271:                                              ; preds = %264
  %272 = load ptr, ptr %18, align 8
  %273 = getelementptr inbounds %struct._zval_struct, ptr %272, i32 0, i32 0
  %274 = load ptr, ptr %273, align 8
  store ptr %274, ptr %21, align 8
  %275 = load ptr, ptr %21, align 8
  %276 = icmp ne ptr %275, null
  call void @llvm.assume(i1 %276)
  %277 = load ptr, ptr %21, align 8
  call void @zend_hash_destroy(ptr noundef %277)
  br label %278

278:                                              ; preds = %271
  %279 = load ptr, ptr %21, align 8
  call void @_efree_56(ptr noundef %279)
  br label %280

280:                                              ; preds = %278
  br label %281

281:                                              ; preds = %280, %264
  br label %282

282:                                              ; preds = %281, %263
  br label %283

283:                                              ; preds = %282, %210
  %284 = load ptr, ptr %17, align 8
  %285 = getelementptr inbounds %struct._zend_object, ptr %284, i32 0, i32 0
  %286 = getelementptr inbounds %struct._zend_refcounted_h, ptr %285, i32 0, i32 1
  %287 = load i32, ptr %286, align 4
  store i32 %287, ptr %16, align 4
  %288 = load i32, ptr %16, align 4
  %289 = and i32 %288, 1008
  %290 = and i32 %289, 128
  %291 = icmp ne i32 %290, 0
  %292 = xor i1 %291, true
  %293 = xor i1 %292, true
  %294 = zext i1 %293 to i32
  %295 = sext i32 %294 to i64
  %296 = icmp ne i64 %295, 0
  br i1 %296, label %297, label %299

297:                                              ; preds = %283
  %298 = load ptr, ptr %17, align 8
  call void @zend_weakrefs_notify(ptr noundef %298)
  br label %299

299:                                              ; preds = %297, %283
  ret void
}