; Function Attrs: nounwind uwtable
define void @zend_object_std_dtor(ptr noundef %0) local_unnamed_addr #0 {
  %2 = getelementptr inbounds i8, ptr %0, i64 32
  %3 = load ptr, ptr %2, align 8
  %.not = icmp eq ptr %3, null
  br i1 %.not, label %19, label %4

4:                                                ; preds = %1
  %5 = getelementptr inbounds i8, ptr %3, i64 4
  %6 = load i32, ptr %5, align 4
  %7 = and i32 %6, 64
  %.not64 = icmp eq i32 %7, 0
  br i1 %.not64, label %8, label %19

8:                                                ; preds = %4
  %9 = load i32, ptr %3, align 4
  %10 = icmp ne i32 %9, 0
  tail call void @llvm.assume(i1 %10)
  %11 = add i32 %9, -1
  store i32 %11, ptr %3, align 4
  %12 = icmp eq i32 %11, 0
  br i1 %12, label %13, label %19

13:                                               ; preds = %8
  %14 = load ptr, ptr %2, align 8
  %15 = getelementptr inbounds i8, ptr %14, i64 4
  %16 = load i32, ptr %15, align 4
  %17 = and i32 %16, 15
  %.not65 = icmp eq i32 %17, 1
  br i1 %.not65, label %19, label %18

18:                                               ; preds = %13
  tail call void @zend_array_destroy(ptr noundef nonnull %14) #6
  br label %19

19:                                               ; preds = %4, %18, %13, %8, %1
  %20 = getelementptr inbounds i8, ptr %0, i64 40
  %21 = getelementptr inbounds i8, ptr %0, i64 16
  %22 = load ptr, ptr %21, align 8
  %23 = getelementptr inbounds i8, ptr %22, i64 32
  %24 = load i32, ptr %23, align 8
  %.not66 = icmp eq i32 %24, 0
  br i1 %.not66, label %.loopexit, label %25

25:                                               ; preds = %19
  %26 = sext i32 %24 to i64
  %27 = getelementptr inbounds %struct._zval_struct, ptr %20, i64 %26
  %28 = ptrtoint ptr %20 to i64
  br label %29

29:                                               ; preds = %81, %25
  %.058 = phi ptr [ %20, %25 ], [ %82, %81 ]
  %30 = getelementptr inbounds i8, ptr %.058, i64 9
  %31 = load i8, ptr %30, align 1
  %.not67 = icmp eq i8 %31, 0
  br i1 %.not67, label %81, label %32

32:                                               ; preds = %29
  %33 = getelementptr inbounds i8, ptr %.058, i64 8
  %34 = load i8, ptr %33, align 8
  %35 = icmp eq i8 %34, 10
  br i1 %35, label %36, label %.thread

36:                                               ; preds = %32
  %37 = load ptr, ptr %.058, align 8
  %38 = getelementptr inbounds i8, ptr %37, i64 24
  %39 = load ptr, ptr %38, align 8
  %.not68 = icmp eq ptr %39, null
  br i1 %.not68, label %.thread, label %40

40:                                               ; preds = %36
  %41 = load ptr, ptr %21, align 8
  %42 = getelementptr inbounds i8, ptr %41, i64 248
  %43 = load ptr, ptr %42, align 8
  %44 = ptrtoint ptr %.058 to i64
  %45 = sub i64 %44, %28
  %46 = ashr exact i64 %45, 4
  %47 = icmp sgt i64 %46, -1
  br i1 %47, label %48, label %zend_get_property_info_for_slot.exit

48:                                               ; preds = %40
  %49 = getelementptr inbounds i8, ptr %41, i64 32
  %50 = load i32, ptr %49, align 8
  %51 = sext i32 %50 to i64
  %52 = icmp slt i64 %46, %51
  br label %zend_get_property_info_for_slot.exit

zend_get_property_info_for_slot.exit:             ; preds = %40, %48
  %53 = phi i1 [ false, %40 ], [ %52, %48 ]
  tail call void @llvm.assume(i1 %53)
  %54 = getelementptr inbounds ptr, ptr %43, i64 %46
  %55 = load ptr, ptr %54, align 8
  %56 = getelementptr inbounds i8, ptr %55, i64 48
  %57 = load i32, ptr %56, align 8
  %58 = and i32 %57, 33554431
  %.not69 = icmp eq i32 %58, 0
  br i1 %.not69, label %.thread, label %59

59:                                               ; preds = %zend_get_property_info_for_slot.exit
  tail call void @zend_ref_del_type_source(ptr noundef nonnull %38, ptr noundef nonnull %55) #6
  %.pre = load i8, ptr %30, align 1
  %.not70 = icmp eq i8 %.pre, 0
  br i1 %.not70, label %81, label %.thread

.thread:                                          ; preds = %32, %36, %zend_get_property_info_for_slot.exit, %59
  %60 = load ptr, ptr %.058, align 8
  %61 = load i32, ptr %60, align 4
  %62 = icmp ne i32 %61, 0
  tail call void @llvm.assume(i1 %62)
  %63 = add i32 %61, -1
  store i32 %63, ptr %60, align 4
  %.not71 = icmp eq i32 %63, 0
  br i1 %.not71, label %64, label %65

64:                                               ; preds = %.thread
  tail call void @rc_dtor_func(ptr noundef nonnull %60) #6
  br label %81

65:                                               ; preds = %.thread
  %66 = getelementptr inbounds i8, ptr %60, i64 4
  %67 = load i32, ptr %66, align 4
  %68 = icmp eq i32 %67, 26
  br i1 %68, label %69, label %76

69:                                               ; preds = %65
  %70 = getelementptr inbounds i8, ptr %60, i64 17
  %71 = load i8, ptr %70, align 1
  %72 = and i8 %71, 2
  %.not72 = icmp eq i8 %72, 0
  br i1 %.not72, label %81, label %73

73:                                               ; preds = %69
  %74 = getelementptr inbounds i8, ptr %60, i64 8
  %75 = load ptr, ptr %74, align 8
  %.phi.trans.insert = getelementptr inbounds i8, ptr %75, i64 4
  %.pre78 = load i32, ptr %.phi.trans.insert, align 4
  br label %76

76:                                               ; preds = %73, %65
  %77 = phi i32 [ %.pre78, %73 ], [ %67, %65 ]
  %.0 = phi ptr [ %75, %73 ], [ %60, %65 ]
  %78 = and i32 %77, -1008
  %79 = icmp eq i32 %78, 0
  br i1 %79, label %80, label %81

80:                                               ; preds = %76
  tail call void @gc_possible_root(ptr noundef nonnull %.0) #6
  br label %81

81:                                               ; preds = %59, %76, %80, %69, %64, %29
  %82 = getelementptr inbounds i8, ptr %.058, i64 16
  %.not73 = icmp eq ptr %82, %27
  br i1 %.not73, label %.loopexit.loopexit, label %29

.loopexit.loopexit:                               ; preds = %81
  %.pre79 = load ptr, ptr %21, align 8
  br label %.loopexit

.loopexit:                                        ; preds = %.loopexit.loopexit, %19
  %83 = phi ptr [ %22, %19 ], [ %.pre79, %.loopexit.loopexit ]
  %.1 = phi ptr [ %20, %19 ], [ %27, %.loopexit.loopexit ]
  %84 = getelementptr inbounds i8, ptr %83, i64 28
  %85 = load i32, ptr %84, align 4
  %86 = and i32 %85, 2048
  %.not74 = icmp eq i32 %86, 0
  br i1 %.not74, label %102, label %87

87:                                               ; preds = %.loopexit
  %88 = getelementptr inbounds i8, ptr %.1, i64 8
  %89 = load i8, ptr %88, align 8
  switch i8 %89, label %102 [
    i8 6, label %90
    i8 7, label %100
  ]

90:                                               ; preds = %87
  %91 = getelementptr inbounds i8, ptr %.1, i64 9
  %92 = load i8, ptr %91, align 1
  %.not75 = icmp eq i8 %92, 0
  br i1 %.not75, label %102, label %93

93:                                               ; preds = %90
  %94 = load ptr, ptr %.1, align 8
  %95 = load i32, ptr %94, align 4
  %96 = icmp ne i32 %95, 0
  tail call void @llvm.assume(i1 %96)
  %97 = add i32 %95, -1
  store i32 %97, ptr %94, align 4
  %.not76 = icmp eq i32 %97, 0
  br i1 %.not76, label %98, label %102

98:                                               ; preds = %93
  %99 = load ptr, ptr %.1, align 8
  tail call void @_efree(ptr noundef %99) #6
  br label %102

100:                                              ; preds = %87
  %101 = load ptr, ptr %.1, align 8, !nonnull !4, !noundef !4
  tail call void @zend_hash_destroy(ptr noundef nonnull %101) #6
  tail call void @_efree_56(ptr noundef nonnull %101) #6
  br label %102

102:                                              ; preds = %87, %98, %93, %90, %100, %.loopexit
  %103 = getelementptr inbounds i8, ptr %0, i64 4
  %104 = load i32, ptr %103, align 4
  %105 = and i32 %104, 128
  %.not77 = icmp eq i32 %105, 0
  br i1 %.not77, label %107, label %106

106:                                              ; preds = %102
  tail call void @zend_weakrefs_notify(ptr noundef nonnull %0) #6
  br label %107

107:                                              ; preds = %106, %102
  ret void
}